Microsoft (R) Macro Assembler Version 11.00.61030.0	    04/15/15 17:00:01
main.asm						     Page 1 - 1




				; Description: Matrix Rain
				; 
				; Start date: 2/13/2015
				;Revision date: 4/14/2015

				INCLUDE Irvine32.inc
			      C ; Include file for Irvine32.lib             (Irvine32.inc)
			      C 
			      C ;OPTION CASEMAP:NONE		; optional: make identifiers case-sensitive
			      C 
			      C INCLUDE SmallWin.inc		; MS-Windows prototypes, structures, and constants
			      C .NOLIST
			      C .LIST
			      C 
			      C INCLUDE VirtualKeys.inc
			      C ; VirtualKeys.inc
			      C .NOLIST
			      C .LIST
			      C 
			      C 
			      C .NOLIST
			      C .LIST
			      C 
				INCLUDE Macros.inc
			      C .NOLIST
			      C .LIST
			      C 
 00000000			.data

				;Array Variables
 00000000  0000000F [		yArray byte 15 DUP(0)				;Y for coordinate
	    00
	   ]
 0000000F  0000000F [		xArray byte 15 DUP(?)
	    00
	   ]
 0000001E  0000000F [		rainArray byte 15 DUP(?)
	    00
	   ]

				;Title Variable
 0000002D 4D 61 74 72 69	titleStr byte "Matrix Rain",0				;Title
	   78 20 52 61 69
	   6E 00

				;X / Death Proc Variables
 00000039 17			beginX byte 23 
 0000003A 59 6F 75 20 77	deathMessage byte "You were hit!...",0
	   65 72 65 20 68
	   69 74 21 2E 2E
	   2E 00
 0000004B 50 6C 61 79 20	replay byte "Play Again? (Y/N)",0
	   41 67 61 69 6E
	   3F 20 28 59 2F
	   4E 29 00
 0000005D 00			response byte 0; Response to yes or no for replay

				;Window Sizing Variables
 0000005E 00000000		outHandle Handle 0
				;BufferBounds COORD <46,25>
 00000062 0000 0000 002D	WindowRect Small_Rect <0,0,45,24>;Left, top, right, and bottom bounds for window size
	   0018

 00000000			.code

 00000000			main PROC
					   INVOKE GetStdHandle,STD_OUTPUT_HANDLE
 00000007  A3 0000005E R		   mov outHandle,eax

					   ;INVOKE SetConsoleScreenBufferSize,outHandle,BufferBounds			;Set console buffer size bounds to X:45 and Y:24 

					   INVOKE SetConsoleWindowInfo,outHandle,TRUE,ADDR WindowRect			;Set console window to coordinates of Size variable
					  
					   INVOKE SetConsoleTitle, ADDR titleStr	;calls the title

 00000028  B8 00000002			   mov eax,green + (black * 16);Green Text, black background
 0000002D  E8 00000000 E		   call SetTextColor      ;Sets the color
 00000032  33 C0			   XOR eax,eax            ;clear eax
 00000034  E8 00000000 E		   call clrscr
					   
 00000039  6A 05			   push 5			;count
 0000003B  E8 000001F9			   call newNum
 00000040  83 C4 04			   add esp,4
					  
					   
 00000043  6A 05			   push 5
 00000045  68 0000000F R		   push offset xArray
 0000004A  6A 2D			   push 45
 0000004C  E8 00000031			   call FillArray
 00000051  83 C4 0C			   add esp,12
					 
					   
 00000054  E8 00000169			   call StartPosition
 00000059			KeyLoop:;Die to break the loop
 00000059  E8 00000048			   call checkY
 0000005E  6A 05			   push 5
 00000060  E8 000000D2			   call fall             ;call fall proc
 00000065  83 C4 04			   add esp,4
 00000068  E8 00000000 E		   call ReadKey          ; looks for keyboard input
 0000006D  74 EA			   jz KeyLoop

 0000006F  E8 00000108			   call RightIf
 00000074  E8 0000011D			   call LeftIf
						
 00000079  EB DE			   jmp KeyLoop
 0000007B			EndLoop:

					   exit
 00000082			main ENDP


 00000082			FillArray proc uses ecx       ; Parameters (Number of elements,Offset Array, Range for numbers) made by John K
 00000083  55				    push ebp             ; Pushing it to access parameters from stack
 00000084  8B EC			    mov ebp, esp
 00000086  E8 00000000 E		    call Randomize	       ;Makes RandomRange random based on time of day 
 0000008B  8B 4D 14			    mov ecx, [ebp + 20]  ; Moves first parameter that will be the number for the counter

 0000008E  8B 7D 10			    mov edi, [ebp + 16]  ; Offset of array put into edi
 00000091			L1: 
 00000091  83 F9 00			    cmp ecx ,0           ; Loop for setting entire array with random values
 00000094  74 0D			    je endL1
 00000096  8B 45 0C			    mov eax,[ebp + 12]    ; Range Paramet put into eax
 00000099  E8 00000000 E		    call RandomRange
 0000009E  FC				    cld                  ; Set direction to forward for the array intialization
 0000009F  AA				    stosb                ; Stores contents of eax into array
 000000A0  49				    dec ecx              ; decrements counter
 000000A1  EB EE			    jmp L1
 000000A3			endL1:

 000000A3  5D				    pop ebp              ; restores Ebp
					    
					    ret
 000000A6			FillArray endp
				;---------------------------------------------------------------------------------------------------------------------

 000000A6			checkY PROC ;proc to check y-coordinate Proc by Kilian
 000000A6  BE 00000000				mov esi,0
 000000AB  B9 00000000				mov ecx,0
 000000B0			CheckAll:
 000000B0  83 FE 0E				cmp esi,14
 000000B3  77 49				ja  EndCheck

						
 000000B5  8A 86 00000000 R			mov al,yArray[esi]

 000000BB  3C 16				cmp al,22d           ;see if rain hits the ground
 000000BD  74 02			     je  _save
 000000BF  EB 04				jmp _endSave
 000000C1			_save:
 000000C1  56					push esi
 000000C2  83 C1 01				add ecx,1
 000000C5			_endSave:
 000000C5  83 F9 00				cmp ecx,0
 000000C8  75 02				jnz  _there
 000000CA  74 32			     jz _endif1
 000000CC			_there:
 000000CC  51				     push ecx
 000000CD  E8 0000019E				call Death
						
 000000D2  6A 05				push 5
 000000D4  E8 00000160				call newNum         ;make new piece of rain
 000000D9  83 C4 04			     add esp,4

 000000DC  6A 05				push 5
 000000DE  68 0000000F R			push offset xArray
 000000E3  6A 2D				push 45
 000000E5  E8 FFFFFF98				call FillArray         ;make new starting X-coord
 000000EA  83 C4 0C				add esp,12

 000000ED  6A 05				push 5
 000000EF  68 00000000 R			push offset yArray
 000000F4  6A 01				push 1
 000000F6  E8 FFFFFF87				call FillArray			;make y-coordinates 0
 000000FB  83 C4 0C				add esp,12

 000000FE			_endif1:
 000000FE			EndCheck:
 000000FE  C3					ret
 000000FF			checkY ENDP ;end checkY proc

				;----------------------------------------------------------------------------------------------------------------------

 000000FF			Reset PROC uses eax ebx 
 00000101  C6 86 00000000 R		mov yArray[esi],0
	   00

 00000108  B0 02			mov al, 2
 0000010A  E8 00000000 E		call RandomRange

 0000010F  3C 00			cmp al, 0
 00000111  75 0B			jne L2
 00000113  C6 86 0000001E R		mov rainArray[esi], '0'; Movs char zero into rain
	   30
 0000011A  33 C0			XOR eax,eax; Clears EAX
 0000011C  EB 09			jmp _End
 0000011E			L2:
 0000011E  C6 86 0000001E R		mov rainArray[esi], '1'
	   31
 00000125  33 C0			XOR eax,eax
 00000127			_End:

 00000127  B0 2D			mov al,45
 00000129  E8 00000000 E		call RandomRange 

 0000012E  88 86 0000000F R		mov xArray[esi],al
					
					ret
 00000137			Reset ENDP

				;---------------------------------------------------------------------------------------------------------------------

 00000137			fall PROC ;proc for moving pieces downProc by Kilian	
 00000137  55					push ebp 
 00000138  8B EC				mov ebp,esp
 0000013A  8B 4D 08				mov ecx,[ebp+8]
 0000013D  B8 00000032				mov eax,50 		 ; delay time ms
 00000142  E8 00000000 E			call Delay		 ;So we can see change speed
 00000147  BE 00000000				mov esi,0
 0000014C			All:
 0000014C  83 F9 00				cmp ecx,0
 0000014F  74 24				jz  EndAll
 00000151  80 BE 00000000 R			cmp yArray[esi],23
	   17
 00000158  74 02				je  _Reset
 0000015A  EB 07				jmp EndReset
 0000015C			_Reset:
 0000015C  E8 FFFFFF9E				call Reset
 00000161  EB 0E				jmp skipYInc
 00000163			EndReset:
 00000163  8A 86 00000000 R			mov al,yArray[esi]
 00000169  FE C0				inc al		 ;increment y coordinate
 0000016B  88 86 00000000 R			mov yArray[esi],al 
 00000171			skipYInc:
 00000171  46				     inc esi
 00000172  49					dec ecx
 00000173  EB D7				jmp All
 00000175			EndAll:	     
 00000175  5D				     pop ebp
 00000176  E8 00000065				call print
 0000017B  C3					ret
 0000017C			fall ENDP;End move proc

				;---------------------------------------------------------------------------------------------------------------------

 0000017C			RightIf PROC USES edx;John Proc
 0000017D  80 FC 4D			     cmp ah , 4Dh
 00000180  74 02			     je Then1
 00000182  EB 10		          jmp endright           ; Jmp to end of proc

 00000184			Then1: 
 00000184  FE 05 00000039 R			inc beginX             ; Increments X coordinate value	
 0000018A  E8 00000051			     call print
 0000018F  E8 00000000 E			call ReadKeyFlush 
					
 00000194			endright:
					     
						ret
 00000196			 RightIf ENDP

				 ;---------------------------------------------------------------------------------------------------------------------
				 
 00000196			 LeftIf PROC USES edx;John Proc
 00000197  80 FC 4B			     cmp ah, 4Bh
 0000019A  74 02			     je Then2
 0000019C  EB 22			     jmp endleft             ; Jmp to end of loop if user put in value that is not 3 or left arrow
 0000019E			Then2:
 0000019E  FE 0D 00000039 R		     dec beginX              ; Decrements X to move to the left
 000001A4			if6:      
 000001A4  80 3D 00000039 R	          cmp beginX, 0           ; check if X goes under 0
	   00
 000001AB  7C 02			     jl then6
 000001AD  EB 07			     jmp end6

 000001AF			then6: 
 000001AF  C6 05 00000039 R		     mov beginX, 0
	   00
 000001B6			end6:	
				      
 000001B6  E8 00000025			     call print
 000001BB  E8 00000000 E		     call ReadKeyFlush       ;Flushes keyboard input buffer and clears internal counter for faster response time
 000001C0			endleft:
					 
					     ret
 000001C2			 LeftIf ENDP

				 ;------------------------------------------------------------------------------------------------------------------------

				 
 000001C2			 StartPosition PROC USES edx;John Proc
					     ;Player Starting Point
 000001C3  B6 17			     mov dh , 23d            ; column 24
 000001C5  8A 15 00000039 R		     mov dl,beginX           ; row 39
 000001CB  E8 00000000 E		     call Gotoxy             ; places cursor in the middle of the bottom part of the console window
 000001D0  B0 58			     mov al,'X'              ; Copies player character to the AL register to be printed
 000001D2  E8 00000000 E		     call WriteChar          ; Prints player to screen console
 000001D7  E8 00000000 E		     call crlf
					     ;Player Starting point
 000001DC  32 C0			     Xor al, al
					     
						ret
 000001E0			 StartPosition ENDP

				;------------------------------------------------------------------------------------------------------------------------


				;******* proc to make it easier to reprint the rain;Kilian Proc

 000001E0			print PROC 
 000001E0  E8 00000000 E			call clrscr
						
 000001E5  BE 00000000				mov esi,0
 000001EA			PrintAll:
 000001EA  83 FE 05				cmp esi,5
 000001ED  77 49				ja  EndPrint
						
 000001EF  8A 96 0000000F R			mov dl,xArray[esi]

 000001F5  8A B6 00000000 R			mov dh,yArray[esi]
 000001FB  E8 00000000 E			call Gotoxy            ;Moves cursor to the position of rain
						
						
 00000200  8A 86 0000001E R			mov al,rainArray[esi]
 00000206  E8 00000000 E			call WriteChar          ;Rewrite rain
 0000020B  46				     inc esi
						
 0000020C  B6 17				mov dh,23d              ;move cursor to character's current position ********* Added to this version by Killian edited by John
 0000020E  8A 15 00000039 R			mov dl , beginX
 00000214			if5: 
 00000214  80 3D 00000039 R			cmp beginX,45           ; check if X goes past 79
	   2D
 0000021B  7F 02				jg then5
 0000021D  EB 04				jmp end5

 0000021F			then5: 
 0000021F  B2 2C				mov dl, 44d
 00000221  B6 17				mov dh, 23d
 00000223			end5:
 00000223  E8 00000000 E			call Gotoxy
 00000228  B0 58				mov al,'X'              ;move X into al                              *********
 0000022A  E8 00000000 E			call WriteChar          ;print it					**********
 0000022F  E8 00000000 E			call Crlf
 00000234  32 C0				xor al,al               ;clear 
 00000236  EB B2				jmp PrintAll
 00000238			EndPrint:
						
 00000238  C3					ret
 00000239			print		ENDP

				;----------------------------------------------------------------------------------------------------------------------

 00000239			newNum Proc
 00000239  55				push ebp
 0000023A  8B EC			mov ebp,esp
 0000023C  8B 4D 08			mov ecx,[ebp+8]
 0000023F  BE 00000000			mov esi,0
 00000244			L1:
 00000244  B0 02			mov al, 2
 00000246  E8 00000000 E		call RandomRange

 0000024B  83 F9 00			cmp ecx, 0
 0000024E  74 1E			je ENDL
 00000250  3C 00			cmp al, 0
 00000252  75 0D			jne L2
 00000254  C6 86 0000001E R		mov rainArray[esi], '0'; Movs char zero into rain
	   30
 0000025B  33 C0			XOR eax,eax; Clears EAX
 0000025D  46				inc esi
 0000025E  49				dec ecx
 0000025F  EB E3			jmp L1
 00000261			L2:
 00000261  C6 86 0000001E R		mov rainArray[esi], '1'
	   31
 00000268  33 C0			XOR eax,eax
 0000026A  46				inc esi
 0000026B  49				dec ecx
 0000026C  EB D6			jmp L1
 0000026E			ENDL:
 0000026E  5D				pop ebp
 0000026F  C3				ret
 00000270			newNum endp

				;--------------------------------------------------------------------------------------------------------------------------
 00000270			Death Proc Uses edx eax ; Added by John Descrpition: Checks where the nummber is and if it is above then X char.
 00000272  59					pop ecx
 00000273  A0 00000039 R			mov al , beginX         ; Moves the Character's X coordinate into eax for cmp
 00000278			CheckAll:
 00000278			If4:
 00000278  83 F9 00				cmp ecx,0
 0000027B  0F 84 0000008A			jz  EndCheck
 00000281  5E					pop esi
 00000282  49					dec ecx
 00000283  8A A6 0000000F R			mov ah,xArray[esi]

 00000289  3A C4				cmp al , ah
 0000028B  74 02				je then4
 0000028D  EB 70				jmp yes
 0000028F			then4:
 0000028F			popAll:
 0000028F  83 F9 00				cmp ecx,0
 00000292  74 04				jz endPop
 00000294  5E					pop esi
 00000295  49					dec ecx
 00000296  EB F7				jmp popAll
 00000298			endPop:
 00000298  E8 00000000 E			call Clrscr
 0000029D  B6 0C				mov dh, 12
 0000029F  B2 17				mov dl, 23
 000002A1  E8 00000000 E			call Gotoxy             ; Sets cursor to print kill message
 000002A6  BA 0000003A R			mov edx, offset deathmessage
 000002AB  E8 00000000 E			call WriteString        ; Displays deathmessage
 000002B0  E8 00000000 E			call Crlf
 000002B5  33 C0				XOR eax,eax             ; clears eax for the yes/no loop

 000002B7			loop1:
 000002B7  80 3D 0000005D R			cmp response , 0
	   00
 000002BE  75 1F				jne answer	
 000002C0  B2 17				mov dl,23
 000002C2  B6 0D				mov dh,13
 000002C4  E8 00000000 E			call Gotoxy
 000002C9  BA 0000004B R			mov edx, offset replay
 000002CE  E8 00000000 E			call WriteString
 000002D3  E8 00000000 E			call Readchar
 000002D8  A2 0000005D R			mov response, al
 000002DD  EB D8				jmp loop1

 000002DF			answer:
 000002DF  80 0D 0000005D R			Or response, 00100000B ; bitmask for lowercase conversion
	   20
 000002E6  80 3D 0000005D R			cmp response, 'y'      ; Yes reponse
	   79
 000002ED  74 10				je yes

 000002EF  B6 18				mov dh, 24
 000002F1  B2 00			     mov dl, 0
 000002F3  E8 00000000 E			call Gotoxy
					
						exit                   ; Exits if al is not 'y'
						
 000002FF			yes:
					
 000002FF  C6 05 0000005D R			mov response,0
	   00
 00000306  E9 FFFFFF6D				jmp CheckAll
 0000030B			EndCheck:	
						ret
 0000030E			Death ENDP

				END main

Microsoft (R) Macro Assembler Version 11.00.61030.0	    04/15/15 17:00:01
main.asm						     Symbols 2 - 1




Macros:

                N a m e                 Type

IsDefined  . . . . . . . . . . .	Func
Startup  . . . . . . . . . . . .	Proc
mDumpMem . . . . . . . . . . . .	Proc
mDump  . . . . . . . . . . . . .	Proc
mGotoxy  . . . . . . . . . . . .	Proc
mReadString  . . . . . . . . . .	Proc
mShowRegister  . . . . . . . . .	Proc
mShow  . . . . . . . . . . . . .	Proc
mWriteLn . . . . . . . . . . . .	Proc
mWriteSpace  . . . . . . . . . .	Proc
mWriteString . . . . . . . . . .	Proc
mWrite . . . . . . . . . . . . .	Proc


Structures and Unions:

                N a m e                  Size
                                         Offset      Type

CONSOLE_CURSOR_INFO  . . . . . .	 00000008
  dwSize . . . . . . . . . . . .	 00000000	 DWord
  bVisible . . . . . . . . . . .	 00000004	 DWord
CONSOLE_SCREEN_BUFFER_INFO . . .	 00000016
  dwSize . . . . . . . . . . . .	 00000000	 DWord
  dwCursorPosition . . . . . . .	 00000004	 DWord
  wAttributes  . . . . . . . . .	 00000008	 Word
  srWindow . . . . . . . . . . .	 0000000A	 QWord
  dwMaximumWindowSize  . . . . .	 00000012	 DWord
COORD  . . . . . . . . . . . . .	 00000004
  X  . . . . . . . . . . . . . .	 00000000	 Word
  Y  . . . . . . . . . . . . . .	 00000002	 Word
FILETIME . . . . . . . . . . . .	 00000008
  loDateTime . . . . . . . . . .	 00000000	 DWord
  hiDateTime . . . . . . . . . .	 00000004	 DWord
FOCUS_EVENT_RECORD . . . . . . .	 00000004
  bSetFocus  . . . . . . . . . .	 00000000	 DWord
FPU_ENVIRON  . . . . . . . . . .	 0000001C
  controlWord  . . . . . . . . .	 00000000	 Word
  statusWord . . . . . . . . . .	 00000004	 Word
  tagWord  . . . . . . . . . . .	 00000008	 Word
  instrPointerOffset . . . . . .	 0000000C	 DWord
  instrPointerSelector . . . . .	 00000010	 DWord
  operandPointerOffset . . . . .	 00000014	 DWord
  operandPointerSelector . . . .	 00000018	 Word
INPUT_RECORD . . . . . . . . . .	 00000014
  EventType  . . . . . . . . . .	 00000000	 Word
  Event  . . . . . . . . . . . .	 00000004	 XmmWord
  bKeyDown . . . . . . . . . . .	 00000000	 DWord
  wRepeatCount . . . . . . . . .	 00000004	 Word
  wVirtualKeyCode  . . . . . . .	 00000006	 Word
  wVirtualScanCode . . . . . . .	 00000008	 Word
  uChar  . . . . . . . . . . . .	 0000000A	 Word
  UnicodeChar  . . . . . . . . .	 00000000	 Word
  AsciiChar  . . . . . . . . . .	 00000000	 Byte
  dwControlKeyState  . . . . . .	 0000000C	 DWord
  dwMousePosition  . . . . . . .	 00000000	 DWord
  dwButtonState  . . . . . . . .	 00000004	 DWord
  dwMouseControlKeyState . . . .	 00000008	 DWord
  dwEventFlags . . . . . . . . .	 0000000C	 DWord
  dwSize . . . . . . . . . . . .	 00000000	 DWord
  dwCommandId  . . . . . . . . .	 00000000	 DWord
  bSetFocus  . . . . . . . . . .	 00000000	 DWord
KEY_EVENT_RECORD . . . . . . . .	 00000010
  bKeyDown . . . . . . . . . . .	 00000000	 DWord
  wRepeatCount . . . . . . . . .	 00000004	 Word
  wVirtualKeyCode  . . . . . . .	 00000006	 Word
  wVirtualScanCode . . . . . . .	 00000008	 Word
  uChar  . . . . . . . . . . . .	 0000000A	 Word
  UnicodeChar  . . . . . . . . .	 00000000	 Word
  AsciiChar  . . . . . . . . . .	 00000000	 Byte
  dwControlKeyState  . . . . . .	 0000000C	 DWord
MENU_EVENT_RECORD  . . . . . . .	 00000004
  dwCommandId  . . . . . . . . .	 00000000	 DWord
MOUSE_EVENT_RECORD . . . . . . .	 00000010
  dwMousePosition  . . . . . . .	 00000000	 DWord
  dwButtonState  . . . . . . . .	 00000004	 DWord
  dwMouseControlKeyState . . . .	 00000008	 DWord
  dwEventFlags . . . . . . . . .	 0000000C	 DWord
SMALL_RECT . . . . . . . . . . .	 00000008
  Left . . . . . . . . . . . . .	 00000000	 Word
  Top  . . . . . . . . . . . . .	 00000002	 Word
  Right  . . . . . . . . . . . .	 00000004	 Word
  Bottom . . . . . . . . . . . .	 00000006	 Word
SYSTEMTIME . . . . . . . . . . .	 00000010
  wYear  . . . . . . . . . . . .	 00000000	 Word
  wMonth . . . . . . . . . . . .	 00000002	 Word
  wDayOfWeek . . . . . . . . . .	 00000004	 Word
  wDay . . . . . . . . . . . . .	 00000006	 Word
  wHour  . . . . . . . . . . . .	 00000008	 Word
  wMinute  . . . . . . . . . . .	 0000000A	 Word
  wSecond  . . . . . . . . . . .	 0000000C	 Word
  wMilliseconds  . . . . . . . .	 0000000E	 Word
WINDOW_BUFFER_SIZE_RECORD  . . .	 00000004
  dwSize . . . . . . . . . . . .	 00000000	 DWord


Segments and Groups:

                N a m e                 Size     Length   Align   Combine Class

FLAT . . . . . . . . . . . . . .	GROUP
STACK  . . . . . . . . . . . . .	32 Bit	 00001000 Para	  Stack	  'STACK'	 
_DATA  . . . . . . . . . . . . .	32 Bit	 0000006A Para	  Public  'DATA'	
_TEXT  . . . . . . . . . . . . .	32 Bit	 0000030E Para	  Public  'CODE'	


Procedures, parameters, and locals:

                N a m e                 Type     Value    Attr

CloseFile  . . . . . . . . . . .	P Near	 00000000 FLAT	Length= 00000000 External STDCALL
CloseHandle  . . . . . . . . . .	P Near	 00000000 FLAT	Length= 00000000 External STDCALL
Clrscr . . . . . . . . . . . . .	P Near	 00000000 FLAT	Length= 00000000 External STDCALL
CreateFileA  . . . . . . . . . .	P Near	 00000000 FLAT	Length= 00000000 External STDCALL
CreateOutputFile . . . . . . . .	P Near	 00000000 FLAT	Length= 00000000 External STDCALL
Crlf . . . . . . . . . . . . . .	P Near	 00000000 FLAT	Length= 00000000 External STDCALL
Death  . . . . . . . . . . . . .	P Near	 00000270 _TEXT	Length= 0000009E Public STDCALL
  CheckAll . . . . . . . . . . .	L Near	 00000278 _TEXT	
  If4  . . . . . . . . . . . . .	L Near	 00000278 _TEXT	
  then4  . . . . . . . . . . . .	L Near	 0000028F _TEXT	
  popAll . . . . . . . . . . . .	L Near	 0000028F _TEXT	
  endPop . . . . . . . . . . . .	L Near	 00000298 _TEXT	
  loop1  . . . . . . . . . . . .	L Near	 000002B7 _TEXT	
  answer . . . . . . . . . . . .	L Near	 000002DF _TEXT	
  yes  . . . . . . . . . . . . .	L Near	 000002FF _TEXT	
  EndCheck . . . . . . . . . . .	L Near	 0000030B _TEXT	
Delay  . . . . . . . . . . . . .	P Near	 00000000 FLAT	Length= 00000000 External STDCALL
DumpMem  . . . . . . . . . . . .	P Near	 00000000 FLAT	Length= 00000000 External STDCALL
DumpRegs . . . . . . . . . . . .	P Near	 00000000 FLAT	Length= 00000000 External STDCALL
ExitProcess  . . . . . . . . . .	P Near	 00000000 FLAT	Length= 00000000 External STDCALL
FileTimeToDosDateTime  . . . . .	P Near	 00000000 FLAT	Length= 00000000 External STDCALL
FileTimeToSystemTime . . . . . .	P Near	 00000000 FLAT	Length= 00000000 External STDCALL
FillArray  . . . . . . . . . . .	P Near	 00000082 _TEXT	Length= 00000024 Public STDCALL
  L1 . . . . . . . . . . . . . .	L Near	 00000091 _TEXT	
  endL1  . . . . . . . . . . . .	L Near	 000000A3 _TEXT	
FlushConsoleInputBuffer  . . . .	P Near	 00000000 FLAT	Length= 00000000 External STDCALL
FormatMessageA . . . . . . . . .	P Near	 00000000 FLAT	Length= 00000000 External STDCALL
GetCommandLineA  . . . . . . . .	P Near	 00000000 FLAT	Length= 00000000 External STDCALL
GetCommandTail . . . . . . . . .	P Near	 00000000 FLAT	Length= 00000000 External STDCALL
GetConsoleCP . . . . . . . . . .	P Near	 00000000 FLAT	Length= 00000000 External STDCALL
GetConsoleCursorInfo . . . . . .	P Near	 00000000 FLAT	Length= 00000000 External STDCALL
GetConsoleMode . . . . . . . . .	P Near	 00000000 FLAT	Length= 00000000 External STDCALL
GetConsoleScreenBufferInfo . . .	P Near	 00000000 FLAT	Length= 00000000 External STDCALL
GetDateTime  . . . . . . . . . .	P Near	 00000000 FLAT	Length= 00000000 External STDCALL
GetFileTime  . . . . . . . . . .	P Near	 00000000 FLAT	Length= 00000000 External STDCALL
GetKeyState  . . . . . . . . . .	P Near	 00000000 FLAT	Length= 00000000 External STDCALL
GetLastError . . . . . . . . . .	P Near	 00000000 FLAT	Length= 00000000 External STDCALL
GetLocalTime . . . . . . . . . .	P Near	 00000000 FLAT	Length= 00000000 External STDCALL
GetMaxXY . . . . . . . . . . . .	P Near	 00000000 FLAT	Length= 00000000 External STDCALL
GetMseconds  . . . . . . . . . .	P Near	 00000000 FLAT	Length= 00000000 External STDCALL
GetNumberOfConsoleInputEvents  .	P Near	 00000000 FLAT	Length= 00000000 External STDCALL
GetProcessHeap . . . . . . . . .	P Near	 00000000 FLAT	Length= 00000000 External STDCALL
GetStdHandle . . . . . . . . . .	P Near	 00000000 FLAT	Length= 00000000 External STDCALL
GetSystemTime  . . . . . . . . .	P Near	 00000000 FLAT	Length= 00000000 External STDCALL
GetTextColor . . . . . . . . . .	P Near	 00000000 FLAT	Length= 00000000 External STDCALL
GetTickCount . . . . . . . . . .	P Near	 00000000 FLAT	Length= 00000000 External STDCALL
Gotoxy . . . . . . . . . . . . .	P Near	 00000000 FLAT	Length= 00000000 External STDCALL
HeapAlloc  . . . . . . . . . . .	P Near	 00000000 FLAT	Length= 00000000 External STDCALL
HeapCreate . . . . . . . . . . .	P Near	 00000000 FLAT	Length= 00000000 External STDCALL
HeapDestroy  . . . . . . . . . .	P Near	 00000000 FLAT	Length= 00000000 External STDCALL
HeapFree . . . . . . . . . . . .	P Near	 00000000 FLAT	Length= 00000000 External STDCALL
HeapSize . . . . . . . . . . . .	P Near	 00000000 FLAT	Length= 00000000 External STDCALL
IsDigit  . . . . . . . . . . . .	P Near	 00000000 FLAT	Length= 00000000 External STDCALL
LeftIf . . . . . . . . . . . . .	P Near	 00000196 _TEXT	Length= 0000002C Public STDCALL
  Then2  . . . . . . . . . . . .	L Near	 0000019E _TEXT	
  if6  . . . . . . . . . . . . .	L Near	 000001A4 _TEXT	
  then6  . . . . . . . . . . . .	L Near	 000001AF _TEXT	
  end6 . . . . . . . . . . . . .	L Near	 000001B6 _TEXT	
  endleft  . . . . . . . . . . .	L Near	 000001C0 _TEXT	
LocalFree  . . . . . . . . . . .	P Near	 00000000 FLAT	Length= 00000000 External STDCALL
MessageBoxA  . . . . . . . . . .	P Near	 00000000 FLAT	Length= 00000000 External STDCALL
MsgBoxAsk  . . . . . . . . . . .	P Near	 00000000 FLAT	Length= 00000000 External STDCALL
MsgBox . . . . . . . . . . . . .	P Near	 00000000 FLAT	Length= 00000000 External STDCALL
OpenInputFile  . . . . . . . . .	P Near	 00000000 FLAT	Length= 00000000 External STDCALL
ParseDecimal32 . . . . . . . . .	P Near	 00000000 FLAT	Length= 00000000 External STDCALL
ParseInteger32 . . . . . . . . .	P Near	 00000000 FLAT	Length= 00000000 External STDCALL
PeekConsoleInputA  . . . . . . .	P Near	 00000000 FLAT	Length= 00000000 External STDCALL
Random32 . . . . . . . . . . . .	P Near	 00000000 FLAT	Length= 00000000 External STDCALL
RandomRange  . . . . . . . . . .	P Near	 00000000 FLAT	Length= 00000000 External STDCALL
Randomize  . . . . . . . . . . .	P Near	 00000000 FLAT	Length= 00000000 External STDCALL
ReadChar . . . . . . . . . . . .	P Near	 00000000 FLAT	Length= 00000000 External STDCALL
ReadConsoleA . . . . . . . . . .	P Near	 00000000 FLAT	Length= 00000000 External STDCALL
ReadConsoleInputA  . . . . . . .	P Near	 00000000 FLAT	Length= 00000000 External STDCALL
ReadDec  . . . . . . . . . . . .	P Near	 00000000 FLAT	Length= 00000000 External STDCALL
ReadFile . . . . . . . . . . . .	P Near	 00000000 FLAT	Length= 00000000 External STDCALL
ReadFloat  . . . . . . . . . . .	P Near	 00000000 FLAT	Length= 00000000 External STDCALL
ReadFromFile . . . . . . . . . .	P Near	 00000000 FLAT	Length= 00000000 External STDCALL
ReadHex  . . . . . . . . . . . .	P Near	 00000000 FLAT	Length= 00000000 External STDCALL
ReadInt  . . . . . . . . . . . .	P Near	 00000000 FLAT	Length= 00000000 External STDCALL
ReadKeyFlush . . . . . . . . . .	P Near	 00000000 FLAT	Length= 00000000 External STDCALL
ReadKey  . . . . . . . . . . . .	P Near	 00000000 FLAT	Length= 00000000 External STDCALL
ReadString . . . . . . . . . . .	P Near	 00000000 FLAT	Length= 00000000 External STDCALL
Reset  . . . . . . . . . . . . .	P Near	 000000FF _TEXT	Length= 00000038 Public STDCALL
  L2 . . . . . . . . . . . . . .	L Near	 0000011E _TEXT	
  _End . . . . . . . . . . . . .	L Near	 00000127 _TEXT	
RightIf  . . . . . . . . . . . .	P Near	 0000017C _TEXT	Length= 0000001A Public STDCALL
  Then1  . . . . . . . . . . . .	L Near	 00000184 _TEXT	
  endright . . . . . . . . . . .	L Near	 00000194 _TEXT	
SetConsoleCursorInfo . . . . . .	P Near	 00000000 FLAT	Length= 00000000 External STDCALL
SetConsoleCursorPosition . . . .	P Near	 00000000 FLAT	Length= 00000000 External STDCALL
SetConsoleMode . . . . . . . . .	P Near	 00000000 FLAT	Length= 00000000 External STDCALL
SetConsoleScreenBufferSize . . .	P Near	 00000000 FLAT	Length= 00000000 External STDCALL
SetConsoleTextAttribute  . . . .	P Near	 00000000 FLAT	Length= 00000000 External STDCALL
SetConsoleTitleA . . . . . . . .	P Near	 00000000 FLAT	Length= 00000000 External STDCALL
SetConsoleWindowInfo . . . . . .	P Near	 00000000 FLAT	Length= 00000000 External STDCALL
SetFilePointer . . . . . . . . .	P Near	 00000000 FLAT	Length= 00000000 External STDCALL
SetLocalTime . . . . . . . . . .	P Near	 00000000 FLAT	Length= 00000000 External STDCALL
SetTextColor . . . . . . . . . .	P Near	 00000000 FLAT	Length= 00000000 External STDCALL
ShowFPUStack . . . . . . . . . .	P Near	 00000000 FLAT	Length= 00000000 External STDCALL
Sleep  . . . . . . . . . . . . .	P Near	 00000000 FLAT	Length= 00000000 External STDCALL
StartPosition  . . . . . . . . .	P Near	 000001C2 _TEXT	Length= 0000001E Public STDCALL
StrLength  . . . . . . . . . . .	P Near	 00000000 FLAT	Length= 00000000 External STDCALL
Str_compare  . . . . . . . . . .	P Near	 00000000 FLAT	Length= 00000000 External STDCALL
Str_copy . . . . . . . . . . . .	P Near	 00000000 FLAT	Length= 00000000 External STDCALL
Str_length . . . . . . . . . . .	P Near	 00000000 FLAT	Length= 00000000 External STDCALL
Str_trim . . . . . . . . . . . .	P Near	 00000000 FLAT	Length= 00000000 External STDCALL
Str_ucase  . . . . . . . . . . .	P Near	 00000000 FLAT	Length= 00000000 External STDCALL
SystemTimeToFileTime . . . . . .	P Near	 00000000 FLAT	Length= 00000000 External STDCALL
WaitMsg  . . . . . . . . . . . .	P Near	 00000000 FLAT	Length= 00000000 External STDCALL
WriteBinB  . . . . . . . . . . .	P Near	 00000000 FLAT	Length= 00000000 External STDCALL
WriteBin . . . . . . . . . . . .	P Near	 00000000 FLAT	Length= 00000000 External STDCALL
WriteChar  . . . . . . . . . . .	P Near	 00000000 FLAT	Length= 00000000 External STDCALL
WriteConsoleA  . . . . . . . . .	P Near	 00000000 FLAT	Length= 00000000 External STDCALL
WriteConsoleOutputAttribute  . .	P Near	 00000000 FLAT	Length= 00000000 External STDCALL
WriteConsoleOutputCharacterA . .	P Near	 00000000 FLAT	Length= 00000000 External STDCALL
WriteDec . . . . . . . . . . . .	P Near	 00000000 FLAT	Length= 00000000 External STDCALL
WriteFile  . . . . . . . . . . .	P Near	 00000000 FLAT	Length= 00000000 External STDCALL
WriteFloat . . . . . . . . . . .	P Near	 00000000 FLAT	Length= 00000000 External STDCALL
WriteHexB  . . . . . . . . . . .	P Near	 00000000 FLAT	Length= 00000000 External STDCALL
WriteHex . . . . . . . . . . . .	P Near	 00000000 FLAT	Length= 00000000 External STDCALL
WriteInt . . . . . . . . . . . .	P Near	 00000000 FLAT	Length= 00000000 External STDCALL
WriteStackFrameName  . . . . . .	P Near	 00000000 FLAT	Length= 00000000 External STDCALL
WriteStackFrame  . . . . . . . .	P Near	 00000000 FLAT	Length= 00000000 External STDCALL
WriteString  . . . . . . . . . .	P Near	 00000000 FLAT	Length= 00000000 External STDCALL
WriteToFile  . . . . . . . . . .	P Near	 00000000 FLAT	Length= 00000000 External STDCALL
WriteWindowsMsg  . . . . . . . .	P Near	 00000000 FLAT	Length= 00000000 External STDCALL
checkY . . . . . . . . . . . . .	P Near	 000000A6 _TEXT	Length= 00000059 Public STDCALL
  CheckAll . . . . . . . . . . .	L Near	 000000B0 _TEXT	
  _save  . . . . . . . . . . . .	L Near	 000000C1 _TEXT	
  _endSave . . . . . . . . . . .	L Near	 000000C5 _TEXT	
  _there . . . . . . . . . . . .	L Near	 000000CC _TEXT	
  _endif1  . . . . . . . . . . .	L Near	 000000FE _TEXT	
  EndCheck . . . . . . . . . . .	L Near	 000000FE _TEXT	
fall . . . . . . . . . . . . . .	P Near	 00000137 _TEXT	Length= 00000045 Public STDCALL
  All  . . . . . . . . . . . . .	L Near	 0000014C _TEXT	
  _Reset . . . . . . . . . . . .	L Near	 0000015C _TEXT	
  EndReset . . . . . . . . . . .	L Near	 00000163 _TEXT	
  skipYInc . . . . . . . . . . .	L Near	 00000171 _TEXT	
  EndAll . . . . . . . . . . . .	L Near	 00000175 _TEXT	
main . . . . . . . . . . . . . .	P Near	 00000000 _TEXT	Length= 00000082 Public STDCALL
  KeyLoop  . . . . . . . . . . .	L Near	 00000059 _TEXT	
  EndLoop  . . . . . . . . . . .	L Near	 0000007B _TEXT	
newNum . . . . . . . . . . . . .	P Near	 00000239 _TEXT	Length= 00000037 Public STDCALL
  L1 . . . . . . . . . . . . . .	L Near	 00000244 _TEXT	
  L2 . . . . . . . . . . . . . .	L Near	 00000261 _TEXT	
  ENDL . . . . . . . . . . . . .	L Near	 0000026E _TEXT	
printf . . . . . . . . . . . . .	P Near	 00000000 FLAT	Length= 00000000 External C
print  . . . . . . . . . . . . .	P Near	 000001E0 _TEXT	Length= 00000059 Public STDCALL
  PrintAll . . . . . . . . . . .	L Near	 000001EA _TEXT	
  if5  . . . . . . . . . . . . .	L Near	 00000214 _TEXT	
  then5  . . . . . . . . . . . .	L Near	 0000021F _TEXT	
  end5 . . . . . . . . . . . . .	L Near	 00000223 _TEXT	
  EndPrint . . . . . . . . . . .	L Near	 00000238 _TEXT	
scanf  . . . . . . . . . . . . .	P Near	 00000000 FLAT	Length= 00000000 External C
wsprintfA  . . . . . . . . . . .	P Near	 00000000 FLAT	Length= 00000000 External C


Symbols:

                N a m e                 Type     Value    Attr

@CodeSize  . . . . . . . . . . .	Number	 00000000h   
@DataSize  . . . . . . . . . . .	Number	 00000000h   
@Interface . . . . . . . . . . .	Number	 00000003h   
@Model . . . . . . . . . . . . .	Number	 00000007h   
@code  . . . . . . . . . . . . .	Text   	 _TEXT
@data  . . . . . . . . . . . . .	Text   	 FLAT
@fardata?  . . . . . . . . . . .	Text   	 FLAT
@fardata . . . . . . . . . . . .	Text   	 FLAT
@stack . . . . . . . . . . . . .	Text   	 FLAT
ALT_MASK . . . . . . . . . . . .	Number	 00000003h   
CAPSLOCK_ON  . . . . . . . . . .	Number	 00000080h   
CREATE_ALWAYS  . . . . . . . . .	Number	 00000002h   
CREATE_NEW . . . . . . . . . . .	Number	 00000001h   
CTRL_MASK  . . . . . . . . . . .	Number	 0000000Ch   
CreateFile . . . . . . . . . . .	Text   	 CreateFileA
DO_NOT_SHARE . . . . . . . . . .	Number	 00000000h   
ENABLE_ECHO_INPUT  . . . . . . .	Number	 00000004h   
ENABLE_LINE_INPUT  . . . . . . .	Number	 00000002h   
ENABLE_MOUSE_INPUT . . . . . . .	Number	 00000010h   
ENABLE_PROCESSED_INPUT . . . . .	Number	 00000001h   
ENABLE_PROCESSED_OUTPUT  . . . .	Number	 00000001h   
ENABLE_WINDOW_INPUT  . . . . . .	Number	 00000008h   
ENABLE_WRAP_AT_EOL_OUTPUT  . . .	Number	 00000002h   
ENHANCED_KEY . . . . . . . . . .	Number	 00000100h   
FALSE  . . . . . . . . . . . . .	Number	 00000000h   
FILE_APPEND_DATA . . . . . . . .	Number	 00000004h   
FILE_ATTRIBUTE_ARCHIVE . . . . .	Number	 00000020h   
FILE_ATTRIBUTE_COMPRESSED  . . .	Number	 00000800h   
FILE_ATTRIBUTE_DEVICE  . . . . .	Number	 00000040h   
FILE_ATTRIBUTE_DIRECTORY . . . .	Number	 00000010h   
FILE_ATTRIBUTE_ENCRYPTED . . . .	Number	 00004000h   
FILE_ATTRIBUTE_HIDDEN  . . . . .	Number	 00000002h   
FILE_ATTRIBUTE_NORMAL  . . . . .	Number	 00000080h   
FILE_ATTRIBUTE_NOT_CONTENT_INDEXED .	Number	 00002000h   
FILE_ATTRIBUTE_OFFLINE . . . . .	Number	 00001000h   
FILE_ATTRIBUTE_READONLY  . . . .	Number	 00000001h   
FILE_ATTRIBUTE_REPARSE_POINT . .	Number	 00000400h   
FILE_ATTRIBUTE_SPARSE_FILE . . .	Number	 00000200h   
FILE_ATTRIBUTE_SYSTEM  . . . . .	Number	 00000004h   
FILE_ATTRIBUTE_TEMPORARY . . . .	Number	 00000100h   
FILE_BEGIN . . . . . . . . . . .	Number	 00000000h   
FILE_CURRENT . . . . . . . . . .	Number	 00000001h   
FILE_DELETE_CHILD  . . . . . . .	Number	 00000040h   
FILE_END . . . . . . . . . . . .	Number	 00000002h   
FILE_READ_DATA . . . . . . . . .	Number	 00000001h   
FILE_SHARE_DELETE  . . . . . . .	Number	 00000004h   
FILE_SHARE_READ  . . . . . . . .	Number	 00000001h   
FILE_SHARE_WRITE . . . . . . . .	Number	 00000002h   
FILE_WRITE_DATA  . . . . . . . .	Number	 00000002h   
FOCUS_EVENT  . . . . . . . . . .	Number	 00000010h   
FORMAT_MESSAGE_ALLOCATE_BUFFER .	Number	 00000100h   
FORMAT_MESSAGE_FROM_SYSTEM . . .	Number	 00001000h   
FormatMessage  . . . . . . . . .	Text   	 FormatMessageA
GENERIC_ALL  . . . . . . . . . .	Number	 10000000h   
GENERIC_EXECUTE  . . . . . . . .	Number	 20000000h   
GENERIC_READ . . . . . . . . . .	Number	 -80000000h   
GENERIC_WRITE  . . . . . . . . .	Number	 40000000h   
GetCommandLine . . . . . . . . .	Text   	 GetCommandLineA
HANDLE . . . . . . . . . . . . .	Text   	 DWORD
HEAP_GENERATE_EXCEPTIONS . . . .	Number	 00000004h   
HEAP_GROWABLE  . . . . . . . . .	Number	 00000002h   
HEAP_NO_SERIALIZE  . . . . . . .	Number	 00000001h   
HEAP_REALLOC_IN_PLACE_ONLY . . .	Number	 00000010h   
HEAP_ZERO_MEMORY . . . . . . . .	Number	 00000008h   
IDABORT  . . . . . . . . . . . .	Number	 00000003h   
IDCANCEL . . . . . . . . . . . .	Number	 00000002h   
IDCLOSE  . . . . . . . . . . . .	Number	 00000008h   
IDCONTINUE . . . . . . . . . . .	Number	 0000000Bh   
IDHELP . . . . . . . . . . . . .	Number	 00000009h   
IDIGNORE . . . . . . . . . . . .	Number	 00000005h   
IDNO . . . . . . . . . . . . . .	Number	 00000007h   
IDOK . . . . . . . . . . . . . .	Number	 00000001h   
IDRETRY  . . . . . . . . . . . .	Number	 00000004h   
IDTIMEOUT  . . . . . . . . . . .	Number	 00007D00h   
IDTRYAGAIN . . . . . . . . . . .	Number	 0000000Ah   
IDYES  . . . . . . . . . . . . .	Number	 00000006h   
INVALID_HANDLE_VALUE . . . . . .	Number	 -00000001h   
KBDOWN_FLAG  . . . . . . . . . .	Number	 00000001h   
KEY_EVENT  . . . . . . . . . . .	Number	 00000001h   
KEY_MASKS  . . . . . . . . . . .	Number	 0000001Fh   
LEFT_ALT_PRESSED . . . . . . . .	Number	 00000002h   
LEFT_CTRL_PRESSED  . . . . . . .	Number	 00000008h   
MB_ABORTRETRYIGNORE  . . . . . .	Number	 00000002h   
MB_APPLMODAL . . . . . . . . . .	Number	 00000000h   
MB_CANCELTRYCONTINUE . . . . . .	Number	 00000006h   
MB_DEFBUTTON1  . . . . . . . . .	Number	 00000000h   
MB_DEFBUTTON2  . . . . . . . . .	Number	 00000100h   
MB_DEFBUTTON3  . . . . . . . . .	Number	 00000200h   
MB_DEFBUTTON4  . . . . . . . . .	Number	 00000300h   
MB_HELP  . . . . . . . . . . . .	Number	 00004000h   
MB_ICONASTERISK  . . . . . . . .	Number	 00000040h   
MB_ICONERROR . . . . . . . . . .	Number	 00000010h   
MB_ICONEXCLAMATION . . . . . . .	Number	 00000030h   
MB_ICONHAND  . . . . . . . . . .	Number	 00000010h   
MB_ICONINFORMATION . . . . . . .	Number	 00000040h   
MB_ICONQUESTION  . . . . . . . .	Number	 00000020h   
MB_ICONSTOP  . . . . . . . . . .	Number	 00000010h   
MB_ICONWARNING . . . . . . . . .	Number	 00000030h   
MB_OKCANCEL  . . . . . . . . . .	Number	 00000001h   
MB_OK  . . . . . . . . . . . . .	Number	 00000000h   
MB_RETRYCANCEL . . . . . . . . .	Number	 00000005h   
MB_SYSTEMMODAL . . . . . . . . .	Number	 00001000h   
MB_TASKMODAL . . . . . . . . . .	Number	 00002000h   
MB_USERICON  . . . . . . . . . .	Number	 00000080h   
MB_YESNOCANCEL . . . . . . . . .	Number	 00000003h   
MB_YESNO . . . . . . . . . . . .	Number	 00000004h   
MENU_EVENT . . . . . . . . . . .	Number	 00000008h   
MOUSE_EVENT  . . . . . . . . . .	Number	 00000002h   
MessageBox . . . . . . . . . . .	Text   	 MessageBoxA
NULL . . . . . . . . . . . . . .	Number	 00000000h   
NUMLOCK_ON . . . . . . . . . . .	Number	 00000020h   
OPEN_ALWAYS  . . . . . . . . . .	Number	 00000004h   
OPEN_EXISTING  . . . . . . . . .	Number	 00000003h   
PeekConsoleInput . . . . . . . .	Text   	 PeekConsoleInputA
RIGHT_ALT_PRESSED  . . . . . . .	Number	 00000001h   
RIGHT_CTRL_PRESSED . . . . . . .	Number	 00000004h   
ReadConsoleInput . . . . . . . .	Text   	 ReadConsoleInputA
ReadConsole  . . . . . . . . . .	Text   	 ReadConsoleA
SCROLLLOCK_ON  . . . . . . . . .	Number	 00000040h   
SHIFT_MASK . . . . . . . . . . .	Number	 00000010h   
SHIFT_PRESSED  . . . . . . . . .	Number	 00000010h   
STD_ERROR_HANDLE . . . . . . . .	Number	 -0000000Ch   
STD_INPUT_HANDLE . . . . . . . .	Number	 -0000000Ah   
STD_OUTPUT_HANDLE  . . . . . . .	Number	 -0000000Bh   
SetConsoleTitle  . . . . . . . .	Text   	 SetConsoleTitleA
TAB  . . . . . . . . . . . . . .	Number	 00000009h   
TRUE . . . . . . . . . . . . . .	Number	 00000001h   
TRUNCATE_EXISTING  . . . . . . .	Number	 00000005h   
VK_11  . . . . . . . . . . . . .	Number	 000000BDh   
VK_12  . . . . . . . . . . . . .	Number	 000000BBh   
VK_ADD . . . . . . . . . . . . .	Number	 0000006Bh   
VK_BACK  . . . . . . . . . . . .	Number	 00000008h   
VK_CANCEL  . . . . . . . . . . .	Number	 00000003h   
VK_CAPITAL . . . . . . . . . . .	Number	 00000014h   
VK_CLEAR . . . . . . . . . . . .	Number	 0000000Ch   
VK_CONTROL . . . . . . . . . . .	Number	 00000011h   
VK_DECIMAL . . . . . . . . . . .	Number	 0000006Eh   
VK_DELETE  . . . . . . . . . . .	Number	 0000002Eh   
VK_DIVIDE  . . . . . . . . . . .	Number	 0000006Fh   
VK_DOWN  . . . . . . . . . . . .	Number	 00000028h   
VK_END . . . . . . . . . . . . .	Number	 00000023h   
VK_ESCAPE  . . . . . . . . . . .	Number	 0000001Bh   
VK_EXECUTE . . . . . . . . . . .	Number	 0000002Bh   
VK_F10 . . . . . . . . . . . . .	Number	 00000079h   
VK_F11 . . . . . . . . . . . . .	Number	 0000007Ah   
VK_F12 . . . . . . . . . . . . .	Number	 0000007Bh   
VK_F13 . . . . . . . . . . . . .	Number	 0000007Ch   
VK_F14 . . . . . . . . . . . . .	Number	 0000007Dh   
VK_F15 . . . . . . . . . . . . .	Number	 0000007Eh   
VK_F16 . . . . . . . . . . . . .	Number	 0000007Fh   
VK_F17 . . . . . . . . . . . . .	Number	 00000080h   
VK_F18 . . . . . . . . . . . . .	Number	 00000081h   
VK_F19 . . . . . . . . . . . . .	Number	 00000082h   
VK_F1  . . . . . . . . . . . . .	Number	 00000070h   
VK_F20 . . . . . . . . . . . . .	Number	 00000083h   
VK_F21 . . . . . . . . . . . . .	Number	 00000084h   
VK_F22 . . . . . . . . . . . . .	Number	 00000085h   
VK_F23 . . . . . . . . . . . . .	Number	 00000086h   
VK_F24 . . . . . . . . . . . . .	Number	 00000087h   
VK_F2  . . . . . . . . . . . . .	Number	 00000071h   
VK_F3  . . . . . . . . . . . . .	Number	 00000072h   
VK_F4  . . . . . . . . . . . . .	Number	 00000073h   
VK_F5  . . . . . . . . . . . . .	Number	 00000074h   
VK_F6  . . . . . . . . . . . . .	Number	 00000075h   
VK_F7  . . . . . . . . . . . . .	Number	 00000076h   
VK_F8  . . . . . . . . . . . . .	Number	 00000077h   
VK_F9  . . . . . . . . . . . . .	Number	 00000078h   
VK_HELP  . . . . . . . . . . . .	Number	 0000002Fh   
VK_HOME  . . . . . . . . . . . .	Number	 00000024h   
VK_INSERT  . . . . . . . . . . .	Number	 0000002Dh   
VK_LBUTTON . . . . . . . . . . .	Number	 00000001h   
VK_LCONTROL  . . . . . . . . . .	Number	 000000A2h   
VK_LEFT  . . . . . . . . . . . .	Number	 00000025h   
VK_LMENU . . . . . . . . . . . .	Number	 000000A4h   
VK_LSHIFT  . . . . . . . . . . .	Number	 000000A0h   
VK_MENU  . . . . . . . . . . . .	Number	 00000012h   
VK_MULTIPLY  . . . . . . . . . .	Number	 0000006Ah   
VK_NEXT  . . . . . . . . . . . .	Number	 00000022h   
VK_NUMLOCK . . . . . . . . . . .	Number	 00000090h   
VK_NUMPAD0 . . . . . . . . . . .	Number	 00000060h   
VK_NUMPAD1 . . . . . . . . . . .	Number	 00000061h   
VK_NUMPAD2 . . . . . . . . . . .	Number	 00000062h   
VK_NUMPAD3 . . . . . . . . . . .	Number	 00000063h   
VK_NUMPAD4 . . . . . . . . . . .	Number	 00000064h   
VK_NUMPAD5 . . . . . . . . . . .	Number	 00000065h   
VK_NUMPAD6 . . . . . . . . . . .	Number	 00000066h   
VK_NUMPAD7 . . . . . . . . . . .	Number	 00000067h   
VK_NUMPAD8 . . . . . . . . . . .	Number	 00000068h   
VK_NUMPAD9 . . . . . . . . . . .	Number	 00000069h   
VK_PAUSE . . . . . . . . . . . .	Number	 00000013h   
VK_PRINT . . . . . . . . . . . .	Number	 0000002Ah   
VK_PRIOR . . . . . . . . . . . .	Number	 00000021h   
VK_RBUTTON . . . . . . . . . . .	Number	 00000002h   
VK_RCONTROL  . . . . . . . . . .	Number	 000000A3h   
VK_RETURN  . . . . . . . . . . .	Number	 0000000Dh   
VK_RIGHT . . . . . . . . . . . .	Number	 00000027h   
VK_RMENU . . . . . . . . . . . .	Number	 000000A5h   
VK_RSHIFT  . . . . . . . . . . .	Number	 000000A1h   
VK_SCROLL  . . . . . . . . . . .	Number	 00000091h   
VK_SEPARATER . . . . . . . . . .	Number	 0000006Ch   
VK_SHIFT . . . . . . . . . . . .	Number	 00000010h   
VK_SNAPSHOT  . . . . . . . . . .	Number	 0000002Ch   
VK_SPACE . . . . . . . . . . . .	Number	 00000020h   
VK_SUBTRACT  . . . . . . . . . .	Number	 0000006Dh   
VK_TAB . . . . . . . . . . . . .	Number	 00000009h   
VK_UP  . . . . . . . . . . . . .	Number	 00000026h   
WINDOW_BUFFER_SIZE_EVENT . . . .	Number	 00000004h   
WindowRect . . . . . . . . . . .	SMALL_RECT  00000062 _DATA	
WriteConsoleOutputCharacter  . .	Text   	 WriteConsoleOutputCharacterA
WriteConsole . . . . . . . . . .	Text   	 WriteConsoleA
beginX . . . . . . . . . . . . .	Byte	 00000039 _DATA	
black  . . . . . . . . . . . . .	Number	 00000000h   
blue . . . . . . . . . . . . . .	Number	 00000001h   
brown  . . . . . . . . . . . . .	Number	 00000006h   
cyan . . . . . . . . . . . . . .	Number	 00000003h   
deathMessage . . . . . . . . . .	Byte	 0000003A _DATA	
exit . . . . . . . . . . . . . .	Text   	 INVOKE ExitProcess,0
gray . . . . . . . . . . . . . .	Number	 00000008h   
green  . . . . . . . . . . . . .	Number	 00000002h   
lightBlue  . . . . . . . . . . .	Number	 00000009h   
lightCyan  . . . . . . . . . . .	Number	 0000000Bh   
lightGray  . . . . . . . . . . .	Number	 00000007h   
lightGreen . . . . . . . . . . .	Number	 0000000Ah   
lightMagenta . . . . . . . . . .	Number	 0000000Dh   
lightRed . . . . . . . . . . . .	Number	 0000000Ch   
magenta  . . . . . . . . . . . .	Number	 00000005h   
outHandle  . . . . . . . . . . .	DWord	 0000005E _DATA	
rainArray  . . . . . . . . . . .	Byte	 0000001E _DATA	
red  . . . . . . . . . . . . . .	Number	 00000004h   
replay . . . . . . . . . . . . .	Byte	 0000004B _DATA	
response . . . . . . . . . . . .	Byte	 0000005D _DATA	
titleStr . . . . . . . . . . . .	Byte	 0000002D _DATA	
white  . . . . . . . . . . . . .	Number	 0000000Fh   
wsprintf . . . . . . . . . . . .	Text   	 wsprintfA
xArray . . . . . . . . . . . . .	Byte	 0000000F _DATA	
yArray . . . . . . . . . . . . .	Byte	 00000000 _DATA	
yellow . . . . . . . . . . . . .	Number	 0000000Eh   

	   0 Warnings
	   0 Errors
